target datalayout = "e-m:e-p270:32:32-p271:32:32-p272:64:64-i64:64-i128:128-f80:128-n8:16:32:64-S128"
target triple = "x86_64-pc-linux-gnu"

%struct.Gia_ManTer_t_ = type { ptr, i32, i32, ptr, ptr, ptr, ptr, ptr, ptr, i32, ptr, ptr, ptr, ptr }
%struct.Gia_Man_t_ = type { ptr, ptr, i32, i32, i32, i32, ptr, ptr, i32, i32, i32, ptr, ptr, %struct.Vec_Int_t_, %struct.Vec_Int_t_, i32, i32, i32, %struct.Vec_Int_t_, ptr, ptr, ptr, i32, i32, i32, i32, ptr, ptr, ptr, ptr, ptr, i32, i32, ptr, i32, ptr, ptr, ptr, ptr, ptr, ptr, ptr, ptr, ptr, ptr, ptr, ptr, ptr, ptr, ptr, ptr, ptr, ptr, %struct.Vec_Int_t_, %struct.Vec_Int_t_, ptr, ptr, ptr, ptr, ptr, ptr, ptr, ptr, ptr, ptr, ptr, ptr, ptr, ptr, ptr, ptr, ptr, ptr, ptr, ptr, ptr, i32, float, float, ptr, ptr, i32, ptr, ptr, ptr, ptr, ptr, ptr, ptr, ptr, ptr, ptr, ptr, ptr, ptr, ptr, ptr, i64, i64, ptr, ptr, i32, i32, i32, i32, i32, i32, i32, i32, i32, i32, i32, i32, ptr, ptr, ptr, ptr, ptr, ptr, ptr, ptr, i32, i32, i32, ptr, i32, i32, ptr, ptr, ptr, ptr, ptr, ptr, i32, i32, ptr, %struct.Vec_Int_t_, %struct.Vec_Int_t_, %struct.Vec_Int_t_, ptr, ptr, ptr }
%struct.Vec_Int_t_ = type { i32, i32, ptr }
%struct.Vec_Ptr_t_ = type { i32, i32, ptr }

; Function Attrs: nounwind uwtable
define internal i32 @Vec_PtrSize(ptr noundef %0) #0 {
  %2 = alloca ptr, align 8
  store ptr %0, ptr %2, align 8
  %3 = load ptr, ptr %2, align 8
  %4 = getelementptr inbounds %struct.Vec_Ptr_t_, ptr %3, i32 0, i32 1
  %5 = load i32, ptr %4, align 4
  ret i32 %5
}

; Function Attrs: nounwind uwtable
define internal i32 @Gia_ManRegNum(ptr noundef %0) #0 {
  %2 = alloca ptr, align 8
  store ptr %0, ptr %2, align 8
  %3 = load ptr, ptr %2, align 8
  %4 = getelementptr inbounds %struct.Gia_Man_t_, ptr %3, i32 0, i32 2
  %5 = load i32, ptr %4, align 8
  ret i32 %5
}

; Function Attrs: nounwind uwtable
define void @Gia_ManTerAnalyze(ptr noundef %0) #0 {
  %2 = alloca ptr, align 8
  %3 = alloca i32, align 4
  %4 = alloca i32, align 4
  %5 = alloca i32, align 4
  store ptr %0, ptr %2, align 8
  store i32 0, ptr %4, align 4
  store i32 0, ptr %5, align 4
  store i32 0, ptr %3, align 4
  br label %6

6:                                                ; preds = %43, %1
  %7 = load i32, ptr %3, align 4
  %8 = load ptr, ptr %2, align 8
  %9 = getelementptr inbounds %struct.Gia_ManTer_t_, ptr %8, i32 0, i32 0
  %10 = load ptr, ptr %9, align 8
  %11 = call i32 @Gia_ManRegNum(ptr noundef %10)
  %12 = icmp slt i32 %7, %11
  br i1 %12, label %13, label %46

13:                                               ; preds = %6
  %14 = load ptr, ptr %2, align 8
  %15 = getelementptr inbounds %struct.Gia_ManTer_t_, ptr %14, i32 0, i32 7
  %16 = load ptr, ptr %15, align 8
  %17 = load i32, ptr %3, align 4
  %18 = sext i32 %17 to i64
  %19 = getelementptr inbounds i32, ptr %16, i64 %18
  %20 = load i32, ptr %19, align 4
  %21 = load ptr, ptr %2, align 8
  %22 = getelementptr inbounds %struct.Gia_ManTer_t_, ptr %21, i32 0, i32 3
  %23 = load ptr, ptr %22, align 8
  %24 = call i32 @Vec_PtrSize(ptr noundef %23)
  %25 = icmp eq i32 %20, %24
  br i1 %25, label %26, label %29

26:                                               ; preds = %13
  %27 = load i32, ptr %4, align 4
  %28 = add nsw i32 %27, 1
  store i32 %28, ptr %4, align 4
  br label %42

29:                                               ; preds = %13
  %30 = load ptr, ptr %2, align 8
  %31 = getelementptr inbounds %struct.Gia_ManTer_t_, ptr %30, i32 0, i32 8
  %32 = load ptr, ptr %31, align 8
  %33 = load i32, ptr %3, align 4
  %34 = sext i32 %33 to i64
  %35 = getelementptr inbounds i32, ptr %32, i64 %34
  %36 = load i32, ptr %35, align 4
  %37 = icmp eq i32 %36, 0
  br i1 %37, label %38, label %41

38:                                               ; preds = %29
  %39 = load i32, ptr %5, align 4
  %40 = add nsw i32 %39, 1
  store i32 %40, ptr %5, align 4
  br label %41

41:                                               ; preds = %38, %29
  br label %42

42:                                               ; preds = %41, %26
  br label %43

43:                                               ; preds = %42
  %44 = load i32, ptr %3, align 4
  %45 = add nsw i32 %44, 1
  store i32 %45, ptr %3, align 4
  br label %6, !llvm.loop !23

46:                                               ; preds = %6
  ret void
}

; Function Attrs: nounwind uwtable
define ptr @Gia_ManReduceConst(ptr noundef %0, i32 noundef %1) #0 {
  %3 = alloca ptr, align 8
  %4 = alloca i32, align 4
  %5 = alloca ptr, align 8
  %6 = alloca ptr, align 8
  %7 = alloca ptr, align 8
  store ptr %0, ptr %3, align 8
  store i32 %1, ptr %4, align 4
  store ptr null, ptr %6, align 8
  %8 = load ptr, ptr %3, align 8
  %9 = load i32, ptr %4, align 4
  %10 = call ptr @Gia_ManTerSimulate(ptr noundef %8, i32 noundef %9)
  store ptr %10, ptr %5, align 8
  %11 = load ptr, ptr %5, align 8
  call void @Gia_ManTerAnalyze(ptr noundef %11)
  %12 = load ptr, ptr %5, align 8
  %13 = load i32, ptr %4, align 4
  %14 = call ptr @Gia_ManTerCreateMap(ptr noundef %12, i32 noundef %13)
  store ptr %14, ptr %7, align 8
  %15 = load ptr, ptr %5, align 8
  call void @Gia_ManTerDelete(ptr noundef %15)
  %16 = load ptr, ptr %3, align 8
  %17 = load ptr, ptr %7, align 8
  %18 = call ptr @Gia_ManDupDfsCiMap(ptr noundef %16, ptr noundef %17, ptr noundef null)
  store ptr %18, ptr %6, align 8
  %19 = load ptr, ptr %7, align 8
  %20 = icmp ne ptr %19, null
  br i1 %20, label %21, label %23

21:                                               ; preds = %2
  %22 = load ptr, ptr %7, align 8
  call void @free(ptr noundef %22) #11
  store ptr null, ptr %7, align 8
  br label %24

23:                                               ; preds = %2
  br label %24

24:                                               ; preds = %23, %21
  %25 = load ptr, ptr %6, align 8
  ret ptr %25
}