; Function Attrs: nounwind uwtable
define ptr @Gia_ManReduceConst(ptr noundef %0, i32 noundef %1) local_unnamed_addr #0 {
  %3 = tail call ptr @Gia_ManTerSimulate(ptr noundef %0, i32 noundef %1)
  %4 = tail call ptr @Gia_ManTerCreateMap(ptr noundef %3, i32 noundef %1)
  tail call void @Gia_ManTerDelete(ptr noundef %3)
  %5 = tail call ptr @Gia_ManDupDfsCiMap(ptr noundef %0, ptr noundef %4, ptr noundef null) #22
  %.not = icmp eq ptr %4, null
  br i1 %.not, label %7, label %6

6:                                                ; preds = %2
  tail call void @free(ptr noundef nonnull %4) #22
  br label %7

7:                                                ; preds = %2, %6
  ret ptr %5
}